target datalayout = "e-m:e-p270:32:32-p271:32:32-p272:64:64-i64:64-i128:128-f80:128-n8:16:32:64-S128"
target triple = "x86_64-pc-linux-gnu"

%struct._generic_SUNAdaptController_Ops = type { ptr, ptr, ptr, ptr, ptr, ptr, ptr, ptr, ptr, ptr, ptr }
%struct._generic_SUNAdaptController = type { ptr, ptr, ptr }

; Function Attrs: nounwind uwtable
define ptr @SUNAdaptController_NewEmpty(ptr noundef %0) #0 {
  %2 = alloca ptr, align 8
  %3 = alloca ptr, align 8
  %4 = alloca ptr, align 8
  %5 = alloca ptr, align 8
  %6 = alloca i32, align 4
  %7 = alloca ptr, align 8
  store ptr %0, ptr %3, align 8, !tbaa !3
  call void @llvm.lifetime.start.p0(i64 8, ptr %4) #4
  call void @llvm.lifetime.start.p0(i64 8, ptr %5) #4
  %8 = load ptr, ptr %3, align 8, !tbaa !3
  %9 = icmp eq ptr %8, null
  br i1 %9, label %10, label %11

10:                                               ; preds = %1
  store ptr null, ptr %2, align 8
  store i32 1, ptr %6, align 4
  br label %46

11:                                               ; preds = %1
  call void @llvm.lifetime.start.p0(i64 8, ptr %7) #4
  %12 = load ptr, ptr %3, align 8, !tbaa !3
  store ptr %12, ptr %7, align 8, !tbaa !3
  store ptr null, ptr %4, align 8, !tbaa !8
  %13 = call noalias ptr @malloc(i64 noundef 24) #5
  store ptr %13, ptr %4, align 8, !tbaa !8
  store ptr null, ptr %5, align 8, !tbaa !10
  %14 = call noalias ptr @malloc(i64 noundef 88) #5
  store ptr %14, ptr %5, align 8, !tbaa !10
  %15 = load ptr, ptr %5, align 8, !tbaa !10
  %16 = getelementptr inbounds nuw %struct._generic_SUNAdaptController_Ops, ptr %15, i32 0, i32 0
  store ptr null, ptr %16, align 8, !tbaa !12
  %17 = load ptr, ptr %5, align 8, !tbaa !10
  %18 = getelementptr inbounds nuw %struct._generic_SUNAdaptController_Ops, ptr %17, i32 0, i32 3
  store ptr null, ptr %18, align 8, !tbaa !14
  %19 = load ptr, ptr %5, align 8, !tbaa !10
  %20 = getelementptr inbounds nuw %struct._generic_SUNAdaptController_Ops, ptr %19, i32 0, i32 4
  store ptr null, ptr %20, align 8, !tbaa !15
  %21 = load ptr, ptr %5, align 8, !tbaa !10
  %22 = getelementptr inbounds nuw %struct._generic_SUNAdaptController_Ops, ptr %21, i32 0, i32 1
  store ptr null, ptr %22, align 8, !tbaa !16
  %23 = load ptr, ptr %5, align 8, !tbaa !10
  %24 = getelementptr inbounds nuw %struct._generic_SUNAdaptController_Ops, ptr %23, i32 0, i32 2
  store ptr null, ptr %24, align 8, !tbaa !17
  %25 = load ptr, ptr %5, align 8, !tbaa !10
  %26 = getelementptr inbounds nuw %struct._generic_SUNAdaptController_Ops, ptr %25, i32 0, i32 5
  store ptr null, ptr %26, align 8, !tbaa !18
  %27 = load ptr, ptr %5, align 8, !tbaa !10
  %28 = getelementptr inbounds nuw %struct._generic_SUNAdaptController_Ops, ptr %27, i32 0, i32 6
  store ptr null, ptr %28, align 8, !tbaa !19
  %29 = load ptr, ptr %5, align 8, !tbaa !10
  %30 = getelementptr inbounds nuw %struct._generic_SUNAdaptController_Ops, ptr %29, i32 0, i32 7
  store ptr null, ptr %30, align 8, !tbaa !20
  %31 = load ptr, ptr %5, align 8, !tbaa !10
  %32 = getelementptr inbounds nuw %struct._generic_SUNAdaptController_Ops, ptr %31, i32 0, i32 8
  store ptr null, ptr %32, align 8, !tbaa !21
  %33 = load ptr, ptr %5, align 8, !tbaa !10
  %34 = getelementptr inbounds nuw %struct._generic_SUNAdaptController_Ops, ptr %33, i32 0, i32 9
  store ptr null, ptr %34, align 8, !tbaa !22
  %35 = load ptr, ptr %5, align 8, !tbaa !10
  %36 = getelementptr inbounds nuw %struct._generic_SUNAdaptController_Ops, ptr %35, i32 0, i32 10
  store ptr null, ptr %36, align 8, !tbaa !23
  %37 = load ptr, ptr %5, align 8, !tbaa !10
  %38 = load ptr, ptr %4, align 8, !tbaa !8
  %39 = getelementptr inbounds nuw %struct._generic_SUNAdaptController, ptr %38, i32 0, i32 1
  store ptr %37, ptr %39, align 8, !tbaa !24
  %40 = load ptr, ptr %4, align 8, !tbaa !8
  %41 = getelementptr inbounds nuw %struct._generic_SUNAdaptController, ptr %40, i32 0, i32 0
  store ptr null, ptr %41, align 8, !tbaa !26
  %42 = load ptr, ptr %3, align 8, !tbaa !3
  %43 = load ptr, ptr %4, align 8, !tbaa !8
  %44 = getelementptr inbounds nuw %struct._generic_SUNAdaptController, ptr %43, i32 0, i32 2
  store ptr %42, ptr %44, align 8, !tbaa !27
  %45 = load ptr, ptr %4, align 8, !tbaa !8
  store ptr %45, ptr %2, align 8
  store i32 1, ptr %6, align 4
  call void @llvm.lifetime.end.p0(i64 8, ptr %7) #4
  br label %46

46:                                               ; preds = %11, %10
  call void @llvm.lifetime.end.p0(i64 8, ptr %5) #4
  call void @llvm.lifetime.end.p0(i64 8, ptr %4) #4
  %47 = load ptr, ptr %2, align 8
  ret ptr %47
}